
GccApplication4.elf:     file format elf32-avr

Sections:
Idx Name          Size      VMA       LMA       File off  Algn
  0 .data         00000000  00800100  00800100  0000028e  2**0
                  CONTENTS, ALLOC, LOAD, DATA
  1 .text         0000021a  00000000  00000000  00000074  2**1
                  CONTENTS, ALLOC, LOAD, READONLY, CODE
  2 .bss          00000005  00800100  00800100  0000028e  2**0
                  ALLOC
  3 .comment      00000030  00000000  00000000  0000028e  2**0
                  CONTENTS, READONLY
  4 .note.gnu.avr.deviceinfo 0000003c  00000000  00000000  000002c0  2**2
                  CONTENTS, READONLY
  5 .debug_aranges 00000038  00000000  00000000  000002fc  2**0
                  CONTENTS, READONLY, DEBUGGING
  6 .debug_info   00000861  00000000  00000000  00000334  2**0
                  CONTENTS, READONLY, DEBUGGING
  7 .debug_abbrev 000006dc  00000000  00000000  00000b95  2**0
                  CONTENTS, READONLY, DEBUGGING
  8 .debug_line   00000416  00000000  00000000  00001271  2**0
                  CONTENTS, READONLY, DEBUGGING
  9 .debug_frame  0000008c  00000000  00000000  00001688  2**2
                  CONTENTS, READONLY, DEBUGGING
 10 .debug_str    00000408  00000000  00000000  00001714  2**0
                  CONTENTS, READONLY, DEBUGGING
 11 .debug_loc    000001a0  00000000  00000000  00001b1c  2**0
                  CONTENTS, READONLY, DEBUGGING
 12 .debug_ranges 00000028  00000000  00000000  00001cbc  2**0
                  CONTENTS, READONLY, DEBUGGING

Disassembly of section .text:

00000000 <__vectors>:
   0:	19 c0       	rjmp	.+50     	; 0x34 <__ctors_end>
   2:	29 c0       	rjmp	.+82     	; 0x56 <__vector_1>
   4:	27 c0       	rjmp	.+78     	; 0x54 <__bad_interrupt>
   6:	26 c0       	rjmp	.+76     	; 0x54 <__bad_interrupt>
   8:	25 c0       	rjmp	.+74     	; 0x54 <__bad_interrupt>
   a:	24 c0       	rjmp	.+72     	; 0x54 <__bad_interrupt>
   c:	23 c0       	rjmp	.+70     	; 0x54 <__bad_interrupt>
   e:	22 c0       	rjmp	.+68     	; 0x54 <__bad_interrupt>
  10:	21 c0       	rjmp	.+66     	; 0x54 <__bad_interrupt>
  12:	20 c0       	rjmp	.+64     	; 0x54 <__bad_interrupt>
  14:	1f c0       	rjmp	.+62     	; 0x54 <__bad_interrupt>
  16:	3d c0       	rjmp	.+122    	; 0x92 <__vector_11>
  18:	1d c0       	rjmp	.+58     	; 0x54 <__bad_interrupt>
  1a:	1c c0       	rjmp	.+56     	; 0x54 <__bad_interrupt>
  1c:	71 c0       	rjmp	.+226    	; 0x100 <__vector_14>
  1e:	1a c0       	rjmp	.+52     	; 0x54 <__bad_interrupt>
  20:	19 c0       	rjmp	.+50     	; 0x54 <__bad_interrupt>
  22:	18 c0       	rjmp	.+48     	; 0x54 <__bad_interrupt>
  24:	17 c0       	rjmp	.+46     	; 0x54 <__bad_interrupt>
  26:	16 c0       	rjmp	.+44     	; 0x54 <__bad_interrupt>
  28:	15 c0       	rjmp	.+42     	; 0x54 <__bad_interrupt>
  2a:	14 c0       	rjmp	.+40     	; 0x54 <__bad_interrupt>
  2c:	13 c0       	rjmp	.+38     	; 0x54 <__bad_interrupt>
  2e:	12 c0       	rjmp	.+36     	; 0x54 <__bad_interrupt>
  30:	11 c0       	rjmp	.+34     	; 0x54 <__bad_interrupt>
  32:	10 c0       	rjmp	.+32     	; 0x54 <__bad_interrupt>

00000034 <__ctors_end>:
  34:	11 24       	eor	r1, r1
  36:	1f be       	out	0x3f, r1	; 63
  38:	cf ef       	ldi	r28, 0xFF	; 255
  3a:	d2 e0       	ldi	r29, 0x02	; 2
  3c:	de bf       	out	0x3e, r29	; 62
  3e:	cd bf       	out	0x3d, r28	; 61

00000040 <__do_clear_bss>:
  40:	21 e0       	ldi	r18, 0x01	; 1
  42:	a0 e0       	ldi	r26, 0x00	; 0
  44:	b1 e0       	ldi	r27, 0x01	; 1
  46:	01 c0       	rjmp	.+2      	; 0x4a <.do_clear_bss_start>

00000048 <.do_clear_bss_loop>:
  48:	1d 92       	st	X+, r1

0000004a <.do_clear_bss_start>:
  4a:	a5 30       	cpi	r26, 0x05	; 5
  4c:	b2 07       	cpc	r27, r18
  4e:	e1 f7       	brne	.-8      	; 0x48 <.do_clear_bss_loop>
  50:	84 d0       	rcall	.+264    	; 0x15a <main>
  52:	e1 c0       	rjmp	.+450    	; 0x216 <_exit>

00000054 <__bad_interrupt>:
  54:	d5 cf       	rjmp	.-86     	; 0x0 <__vectors>

00000056 <__vector_1>:
volatile uint8_t minute;
volatile uint8_t hour;
uint8_t bitArray[11] = {0,0,0,0,0,0,0,0,0,0,0};


ISR(INT0_vect){
  56:	1f 92       	push	r1
  58:	0f 92       	push	r0
  5a:	0f b6       	in	r0, 0x3f	; 63
  5c:	0f 92       	push	r0
  5e:	11 24       	eor	r1, r1
  60:	8f 93       	push	r24
  62:	9f 93       	push	r25
	
	
	
	if (!(PIND & (1 << PD2))) {
  64:	4a 99       	sbic	0x09, 2	; 9
  66:	0e c0       	rjmp	.+28     	; 0x84 <__vector_1+0x2e>
	#else
		//round up by default
		__ticks_dc = (uint32_t)(ceil(fabs(__tmp)));
	#endif

	__builtin_avr_delay_cycles(__ticks_dc);
  68:	8c ec       	ldi	r24, 0xCC	; 204
  6a:	94 e0       	ldi	r25, 0x04	; 4
  6c:	01 97       	sbiw	r24, 0x01	; 1
  6e:	f1 f7       	brne	.-4      	; 0x6c <__vector_1+0x16>
  70:	00 c0       	rjmp	.+0      	; 0x72 <__vector_1+0x1c>
  72:	00 00       	nop
		_delay_ms(150);
		if (!(PIND & (1 << PD2))) {
  74:	4a 99       	sbic	0x09, 2	; 9
  76:	06 c0       	rjmp	.+12     	; 0x84 <__vector_1+0x2e>
			
			INT0_pushed  = 1;
  78:	81 e0       	ldi	r24, 0x01	; 1
  7a:	90 e0       	ldi	r25, 0x00	; 0
  7c:	90 93 01 01 	sts	0x0101, r25	; 0x800101 <_edata+0x1>
  80:	80 93 00 01 	sts	0x0100, r24	; 0x800100 <_edata>
		
		}
	}
	

}
  84:	9f 91       	pop	r25
  86:	8f 91       	pop	r24
  88:	0f 90       	pop	r0
  8a:	0f be       	out	0x3f, r0	; 63
  8c:	0f 90       	pop	r0
  8e:	1f 90       	pop	r1
  90:	18 95       	reti

00000092 <__vector_11>:


ISR(TIMER1_COMPA_vect) {
  92:	1f 92       	push	r1
  94:	0f 92       	push	r0
  96:	0f b6       	in	r0, 0x3f	; 63
  98:	0f 92       	push	r0
  9a:	11 24       	eor	r1, r1
  9c:	8f 93       	push	r24
  9e:	9f 93       	push	r25

	if(OCR1A==30){
  a0:	80 91 88 00 	lds	r24, 0x0088	; 0x800088 <__DATA_REGION_ORIGIN__+0x28>
  a4:	90 91 89 00 	lds	r25, 0x0089	; 0x800089 <__DATA_REGION_ORIGIN__+0x29>
  a8:	4e 97       	sbiw	r24, 0x1e	; 30
  aa:	91 f4       	brne	.+36     	; 0xd0 <__vector_11+0x3e>
		OCR1A = 2;
  ac:	82 e0       	ldi	r24, 0x02	; 2
  ae:	90 e0       	ldi	r25, 0x00	; 0
  b0:	90 93 89 00 	sts	0x0089, r25	; 0x800089 <__DATA_REGION_ORIGIN__+0x29>
  b4:	80 93 88 00 	sts	0x0088, r24	; 0x800088 <__DATA_REGION_ORIGIN__+0x28>
		PORTC |= (1 << 5);
  b8:	45 9a       	sbi	0x08, 5	; 8
		PORTC |= (1 << 0);
  ba:	40 9a       	sbi	0x08, 0	; 8
		PORTC |= (1 << 3);
  bc:	43 9a       	sbi	0x08, 3	; 8
		PORTC |= (1 << 2);
  be:	42 9a       	sbi	0x08, 2	; 8
		PORTC |= (1 << 1);
  c0:	41 9a       	sbi	0x08, 1	; 8
		PORTD |= (1 << 1);
  c2:	59 9a       	sbi	0x0b, 1	; 11
		PORTB |= (1 << 0);
  c4:	28 9a       	sbi	0x05, 0	; 5
		PORTD |= (1 << 0);
  c6:	58 9a       	sbi	0x0b, 0	; 11
		PORTC |= (1 << 4);
  c8:	44 9a       	sbi	0x08, 4	; 8
		PORTB |= (1 << 2);
  ca:	2a 9a       	sbi	0x05, 2	; 5
		PORTB |= (1 << 1);
  cc:	29 9a       	sbi	0x05, 1	; 5
  ce:	11 c0       	rjmp	.+34     	; 0xf2 <__vector_11+0x60>
		} else {
		OCR1A = 30;
  d0:	8e e1       	ldi	r24, 0x1E	; 30
  d2:	90 e0       	ldi	r25, 0x00	; 0
  d4:	90 93 89 00 	sts	0x0089, r25	; 0x800089 <__DATA_REGION_ORIGIN__+0x29>
  d8:	80 93 88 00 	sts	0x0088, r24	; 0x800088 <__DATA_REGION_ORIGIN__+0x28>
		PORTC &= ~(1 << 5);
  dc:	45 98       	cbi	0x08, 5	; 8
		PORTC &= ~(1 << 0);
  de:	40 98       	cbi	0x08, 0	; 8
		PORTC &= ~(1 << 3);
  e0:	43 98       	cbi	0x08, 3	; 8
		PORTC &= ~(1 << 2);
  e2:	42 98       	cbi	0x08, 2	; 8
		PORTC &= ~(1 << 1);
  e4:	41 98       	cbi	0x08, 1	; 8
		PORTD &= ~(1 << 1);
  e6:	59 98       	cbi	0x0b, 1	; 11
		PORTB &= ~(1 << 0);
  e8:	28 98       	cbi	0x05, 0	; 5
		PORTD &= ~(1 << 0);
  ea:	58 98       	cbi	0x0b, 0	; 11
		PORTC &= ~(1 << 4);
  ec:	44 98       	cbi	0x08, 4	; 8
		PORTB &= ~(1 << 2);
  ee:	2a 98       	cbi	0x05, 2	; 5
		PORTB &= ~(1 << 1);
  f0:	29 98       	cbi	0x05, 1	; 5
	}
}
  f2:	9f 91       	pop	r25
  f4:	8f 91       	pop	r24
  f6:	0f 90       	pop	r0
  f8:	0f be       	out	0x3f, r0	; 63
  fa:	0f 90       	pop	r0
  fc:	1f 90       	pop	r1
  fe:	18 95       	reti

00000100 <__vector_14>:


ISR(TIMER0_COMPA_vect){
 100:	1f 92       	push	r1
 102:	0f 92       	push	r0
 104:	0f b6       	in	r0, 0x3f	; 63
 106:	0f 92       	push	r0
 108:	11 24       	eor	r1, r1
 10a:	8f 93       	push	r24
	minute++;
 10c:	80 91 03 01 	lds	r24, 0x0103	; 0x800103 <minute>
 110:	8f 5f       	subi	r24, 0xFF	; 255
 112:	80 93 03 01 	sts	0x0103, r24	; 0x800103 <minute>
		if (second >= 60){
 116:	80 91 02 01 	lds	r24, 0x0102	; 0x800102 <second>
 11a:	8c 33       	cpi	r24, 0x3C	; 60
 11c:	38 f0       	brcs	.+14     	; 0x12c <__vector_14+0x2c>
			minute++;
 11e:	80 91 03 01 	lds	r24, 0x0103	; 0x800103 <minute>
 122:	8f 5f       	subi	r24, 0xFF	; 255
 124:	80 93 03 01 	sts	0x0103, r24	; 0x800103 <minute>
			second = 0;
 128:	10 92 02 01 	sts	0x0102, r1	; 0x800102 <second>
		}
		if(minute >= 60){
 12c:	80 91 03 01 	lds	r24, 0x0103	; 0x800103 <minute>
 130:	8c 33       	cpi	r24, 0x3C	; 60
 132:	38 f0       	brcs	.+14     	; 0x142 <__vector_14+0x42>
			hour++;
 134:	80 91 04 01 	lds	r24, 0x0104	; 0x800104 <hour>
 138:	8f 5f       	subi	r24, 0xFF	; 255
 13a:	80 93 04 01 	sts	0x0104, r24	; 0x800104 <hour>
			minute = 0;
 13e:	10 92 03 01 	sts	0x0103, r1	; 0x800103 <minute>
		}
		if(hour >= 24){
 142:	80 91 04 01 	lds	r24, 0x0104	; 0x800104 <hour>
 146:	88 31       	cpi	r24, 0x18	; 24
 148:	10 f0       	brcs	.+4      	; 0x14e <__vector_14+0x4e>
			hour = 0;
 14a:	10 92 04 01 	sts	0x0104, r1	; 0x800104 <hour>
		}
	}
 14e:	8f 91       	pop	r24
 150:	0f 90       	pop	r0
 152:	0f be       	out	0x3f, r0	; 63
 154:	0f 90       	pop	r0
 156:	1f 90       	pop	r1
 158:	18 95       	reti

0000015a <main>:



int main(void)
{	
	cli();							
 15a:	f8 94       	cli
	DDRB = 0b00011111 ;
 15c:	8f e1       	ldi	r24, 0x1F	; 31
 15e:	84 b9       	out	0x04, r24	; 4
	DDRC = 0b00111111;
 160:	8f e3       	ldi	r24, 0x3F	; 63
 162:	87 b9       	out	0x07, r24	; 7
	DDRD = 0b11100011;
 164:	83 ee       	ldi	r24, 0xE3	; 227
 166:	8a b9       	out	0x0a, r24	; 10
	PORTD |= (1 << 2) | (1 << 3) | (1 << 4);  //Pullups PD2 PD3 PD4 aktiviert
 168:	8b b1       	in	r24, 0x0b	; 11
 16a:	8c 61       	ori	r24, 0x1C	; 28
 16c:	8b b9       	out	0x0b, r24	; 11
	
	
	EICRA = (1 << ISC11) |(1 << ISC01); // Interrupts auf fallende Flanke getriggert (pullup aktiv, taster betätigen zieht pegel auf low)
 16e:	8a e0       	ldi	r24, 0x0A	; 10
 170:	80 93 69 00 	sts	0x0069, r24	; 0x800069 <__DATA_REGION_ORIGIN__+0x9>
	EIMSK |= (1 << INT0) | (1 << INT1); // enable INT0 und INT1
 174:	8d b3       	in	r24, 0x1d	; 29
 176:	83 60       	ori	r24, 0x03	; 3
 178:	8d bb       	out	0x1d, r24	; 29
	 
	TCCR0B |= (1 << CS02); //prescaler auf 256 gesetzt     muss nicht A sein!?!?!?!
 17a:	85 b5       	in	r24, 0x25	; 37
 17c:	84 60       	ori	r24, 0x04	; 4
 17e:	85 bd       	out	0x25, r24	; 37
	OCR0A = 127;			//compare Register Teiler   Output Compare Register0  wird mit dem zähler verglichen
 180:	8f e7       	ldi	r24, 0x7F	; 127
 182:	87 bd       	out	0x27, r24	; 39
	TCCR0A |= (1 << WGM01); // nutze CTC  Clear Timer on compare wird auf 0 gesetzt wenn TCNT0 (zähler) dem wert von OCR0A entspricht
 184:	84 b5       	in	r24, 0x24	; 36
 186:	82 60       	ori	r24, 0x02	; 2
 188:	84 bd       	out	0x24, r24	; 36
	TIMSK0 |= (1 << OCIE0A);  // compare interrupt A erlaubt  Timer/Counter Interrupt Mask Register
 18a:	ee e6       	ldi	r30, 0x6E	; 110
 18c:	f0 e0       	ldi	r31, 0x00	; 0
 18e:	80 81       	ld	r24, Z
 190:	82 60       	ori	r24, 0x02	; 2
 192:	80 83       	st	Z, r24
	
	
	 TCCR1B |= (1 << CS12) | (1 << CS10); //1024
 194:	e1 e8       	ldi	r30, 0x81	; 129
 196:	f0 e0       	ldi	r31, 0x00	; 0
 198:	80 81       	ld	r24, Z
 19a:	85 60       	ori	r24, 0x05	; 5
 19c:	80 83       	st	Z, r24
	 TIMSK1 |= (1<<OCIE1A);   // Interrupt freischalten, beim Erreichen des Vergleichswertes wird Compare Match Interrupt ausgelöst.
 19e:	ef e6       	ldi	r30, 0x6F	; 111
 1a0:	f0 e0       	ldi	r31, 0x00	; 0
 1a2:	80 81       	ld	r24, Z
 1a4:	82 60       	ori	r24, 0x02	; 2
 1a6:	80 83       	st	Z, r24
	 OCR1A = 30;
 1a8:	8e e1       	ldi	r24, 0x1E	; 30
 1aa:	90 e0       	ldi	r25, 0x00	; 0
 1ac:	90 93 89 00 	sts	0x0089, r25	; 0x800089 <__DATA_REGION_ORIGIN__+0x29>
 1b0:	80 93 88 00 	sts	0x0088, r24	; 0x800088 <__DATA_REGION_ORIGIN__+0x28>
	TCCR1A |= (1 << WGM12);
 1b4:	e0 e8       	ldi	r30, 0x80	; 128
 1b6:	f0 e0       	ldi	r31, 0x00	; 0
 1b8:	80 81       	ld	r24, Z
 1ba:	88 60       	ori	r24, 0x08	; 8
 1bc:	80 83       	st	Z, r24
					
	sei();
 1be:	78 94       	sei
	//fillBitArray(hour, minute);
	//showTime(bitArray);
	
	*/
	
	if (!(PIND & (1 << PD3))) {
 1c0:	4b 99       	sbic	0x09, 3	; 9
 1c2:	13 c0       	rjmp	.+38     	; 0x1ea <main+0x90>
 1c4:	8c ec       	ldi	r24, 0xCC	; 204
 1c6:	94 e0       	ldi	r25, 0x04	; 4
 1c8:	01 97       	sbiw	r24, 0x01	; 1
 1ca:	f1 f7       	brne	.-4      	; 0x1c8 <main+0x6e>
 1cc:	00 c0       	rjmp	.+0      	; 0x1ce <main+0x74>
 1ce:	00 00       	nop
		_delay_ms(150);
		if (!(PIND & (1 << PD3))) {
 1d0:	4b 99       	sbic	0x09, 3	; 9
 1d2:	0b c0       	rjmp	.+22     	; 0x1ea <main+0x90>
			minute++;
 1d4:	80 91 03 01 	lds	r24, 0x0103	; 0x800103 <minute>
 1d8:	8f 5f       	subi	r24, 0xFF	; 255
 1da:	80 93 03 01 	sts	0x0103, r24	; 0x800103 <minute>
			if(minute >= 24){
 1de:	80 91 03 01 	lds	r24, 0x0103	; 0x800103 <minute>
 1e2:	88 31       	cpi	r24, 0x18	; 24
 1e4:	10 f0       	brcs	.+4      	; 0x1ea <main+0x90>
				minute = 0;
 1e6:	10 92 03 01 	sts	0x0103, r1	; 0x800103 <minute>
		}
	}
	
	
	
	if (!(PIND & (1 << PD4))) {
 1ea:	4c 99       	sbic	0x09, 4	; 9
 1ec:	e9 cf       	rjmp	.-46     	; 0x1c0 <main+0x66>
 1ee:	8c ec       	ldi	r24, 0xCC	; 204
 1f0:	94 e0       	ldi	r25, 0x04	; 4
 1f2:	01 97       	sbiw	r24, 0x01	; 1
 1f4:	f1 f7       	brne	.-4      	; 0x1f2 <main+0x98>
 1f6:	00 c0       	rjmp	.+0      	; 0x1f8 <main+0x9e>
 1f8:	00 00       	nop
		_delay_ms(150);
		if (!(PIND & (1 << PD4))) {
 1fa:	4c 99       	sbic	0x09, 4	; 9
 1fc:	e1 cf       	rjmp	.-62     	; 0x1c0 <main+0x66>
			minute++;
 1fe:	80 91 03 01 	lds	r24, 0x0103	; 0x800103 <minute>
 202:	8f 5f       	subi	r24, 0xFF	; 255
 204:	80 93 03 01 	sts	0x0103, r24	; 0x800103 <minute>
			if(minute >= 60){
 208:	80 91 03 01 	lds	r24, 0x0103	; 0x800103 <minute>
 20c:	8c 33       	cpi	r24, 0x3C	; 60
 20e:	c0 f2       	brcs	.-80     	; 0x1c0 <main+0x66>
				minute = 0;
 210:	10 92 03 01 	sts	0x0103, r1	; 0x800103 <minute>
 214:	d5 cf       	rjmp	.-86     	; 0x1c0 <main+0x66>

00000216 <_exit>:
 216:	f8 94       	cli

00000218 <__stop_program>:
 218:	ff cf       	rjmp	.-2      	; 0x218 <__stop_program>
